target datalayout = "e-m:e-p270:32:32-p271:32:32-p272:64:64-i64:64-i128:128-f80:128-n8:16:32:64-S128"
target triple = "x86_64-pc-linux-gnu"

%struct.SpecifierOptList = type { ptr, i32, ptr, i32 }
%struct.SpecifierOpt = type { ptr, %struct.StreamSpecifier, %union.anon }
%struct.StreamSpecifier = type { i32, i32, i64, i32, i8, i8, i32, ptr, ptr, ptr }
%union.anon = type { ptr }

@.str = private unnamed_addr constant [30 x i8] c"Assertion %s failed at %s:%d\0A\00", align 1
@.str.1 = private unnamed_addr constant [45 x i8] c"!sol->nb_opt || sol->type == OPT_TYPE_STRING\00", align 1
@.str.2 = private unnamed_addr constant [21 x i8] c"fftools/ffmpeg_opt.c\00", align 1

; Function Attrs: nounwind uwtable
define ptr @opt_match_per_type_str(ptr noundef %0, i8 noundef signext %1) #0 {
  %3 = alloca ptr, align 8
  %4 = alloca ptr, align 8
  %5 = alloca i8, align 1
  %6 = alloca i32, align 4
  %7 = alloca i32, align 4
  %8 = alloca ptr, align 8
  store ptr %0, ptr %4, align 8, !tbaa !4
  store i8 %1, ptr %5, align 1, !tbaa !9
  br label %9

9:                                                ; preds = %2
  %10 = load ptr, ptr %4, align 8, !tbaa !4
  %11 = getelementptr inbounds nuw %struct.SpecifierOptList, ptr %10, i32 0, i32 1
  %12 = load i32, ptr %11, align 8, !tbaa !10
  %13 = icmp ne i32 %12, 0
  br i1 %13, label %14, label %20

14:                                               ; preds = %9
  %15 = load ptr, ptr %4, align 8, !tbaa !4
  %16 = getelementptr inbounds nuw %struct.SpecifierOptList, ptr %15, i32 0, i32 3
  %17 = load i32, ptr %16, align 8, !tbaa !15
  %18 = icmp eq i32 %17, 2
  br i1 %18, label %20, label %19

19:                                               ; preds = %14
  call void (ptr, i32, ptr, ...) @av_log(ptr noundef null, i32 noundef 0, ptr noundef @.str, ptr noundef @.str.1, ptr noundef @.str.2, i32 noundef 170)
  call void @abort() #11
  unreachable

20:                                               ; preds = %14, %9
  br label %21

21:                                               ; preds = %20
  call void @llvm.lifetime.start.p0(i64 4, ptr %6) #12
  store i32 0, ptr %6, align 4, !tbaa !16
  br label %22

22:                                               ; preds = %63, %21
  %23 = load i32, ptr %6, align 4, !tbaa !16
  %24 = load ptr, ptr %4, align 8, !tbaa !4
  %25 = getelementptr inbounds nuw %struct.SpecifierOptList, ptr %24, i32 0, i32 1
  %26 = load i32, ptr %25, align 8, !tbaa !10
  %27 = icmp slt i32 %23, %26
  br i1 %27, label %29, label %28

28:                                               ; preds = %22
  store i32 4, ptr %7, align 4
  br label %66

29:                                               ; preds = %22
  call void @llvm.lifetime.start.p0(i64 8, ptr %8) #12
  %30 = load ptr, ptr %4, align 8, !tbaa !4
  %31 = getelementptr inbounds nuw %struct.SpecifierOptList, ptr %30, i32 0, i32 0
  %32 = load ptr, ptr %31, align 8, !tbaa !17
  %33 = load i32, ptr %6, align 4, !tbaa !16
  %34 = sext i32 %33 to i64
  %35 = getelementptr inbounds %struct.SpecifierOpt, ptr %32, i64 %34
  %36 = getelementptr inbounds nuw %struct.SpecifierOpt, ptr %35, i32 0, i32 0
  %37 = load ptr, ptr %36, align 8, !tbaa !18
  store ptr %37, ptr %8, align 8, !tbaa !23
  %38 = load ptr, ptr %8, align 8, !tbaa !23
  %39 = getelementptr inbounds i8, ptr %38, i64 0
  %40 = load i8, ptr %39, align 1, !tbaa !9
  %41 = sext i8 %40 to i32
  %42 = load i8, ptr %5, align 1, !tbaa !9
  %43 = sext i8 %42 to i32
  %44 = icmp eq i32 %41, %43
  br i1 %44, label %45, label %59

45:                                               ; preds = %29
  %46 = load ptr, ptr %8, align 8, !tbaa !23
  %47 = getelementptr inbounds i8, ptr %46, i64 1
  %48 = load i8, ptr %47, align 1, !tbaa !9
  %49 = icmp ne i8 %48, 0
  br i1 %49, label %59, label %50

50:                                               ; preds = %45
  %51 = load ptr, ptr %4, align 8, !tbaa !4
  %52 = getelementptr inbounds nuw %struct.SpecifierOptList, ptr %51, i32 0, i32 0
  %53 = load ptr, ptr %52, align 8, !tbaa !17
  %54 = load i32, ptr %6, align 4, !tbaa !16
  %55 = sext i32 %54 to i64
  %56 = getelementptr inbounds %struct.SpecifierOpt, ptr %53, i64 %55
  %57 = getelementptr inbounds nuw %struct.SpecifierOpt, ptr %56, i32 0, i32 2
  %58 = load ptr, ptr %57, align 8, !tbaa !9
  store ptr %58, ptr %3, align 8
  store i32 1, ptr %7, align 4
  br label %60

59:                                               ; preds = %45, %29
  store i32 0, ptr %7, align 4
  br label %60

60:                                               ; preds = %59, %50
  call void @llvm.lifetime.end.p0(i64 8, ptr %8) #12
  %61 = load i32, ptr %7, align 4
  switch i32 %61, label %66 [
    i32 0, label %62
  ]

62:                                               ; preds = %60
  br label %63

63:                                               ; preds = %62
  %64 = load i32, ptr %6, align 4, !tbaa !16
  %65 = add nsw i32 %64, 1
  store i32 %65, ptr %6, align 4, !tbaa !16
  br label %22, !llvm.loop !24

66:                                               ; preds = %60, %28
  call void @llvm.lifetime.end.p0(i64 4, ptr %6) #12
  %67 = load i32, ptr %7, align 4
  switch i32 %67, label %71 [
    i32 4, label %68
    i32 1, label %69
  ]

68:                                               ; preds = %66
  store ptr null, ptr %3, align 8
  br label %69

69:                                               ; preds = %68, %66
  %70 = load ptr, ptr %3, align 8
  ret ptr %70

71:                                               ; preds = %66
  unreachable
}