; Function Attrs: nounwind uwtable
define ptr @opt_match_per_type_str(ptr noundef readonly captures(none) %0, i8 noundef signext %1) local_unnamed_addr #0 {
  %3 = getelementptr inbounds nuw i8, ptr %0, i64 8
  %4 = load i32, ptr %3, align 8, !tbaa !4
  %.not = icmp eq i32 %4, 0
  br i1 %.not, label %.loopexit, label %5

5:                                                ; preds = %2
  %6 = getelementptr inbounds nuw i8, ptr %0, i64 24
  %7 = load i32, ptr %6, align 8, !tbaa !12
  %8 = icmp eq i32 %7, 2
  br i1 %8, label %10, label %9

9:                                                ; preds = %5
  tail call void (ptr, i32, ptr, ...) @av_log(ptr noundef null, i32 noundef 0, ptr noundef nonnull @.str, ptr noundef nonnull @.str.1, ptr noundef nonnull @.str.2, i32 noundef 170) #15
  tail call void @abort() #16
  unreachable

10:                                               ; preds = %5
  %.not2122 = icmp sgt i32 %4, 0
  br i1 %.not2122, label %.lr.ph, label %.loopexit

.lr.ph:                                           ; preds = %10
  %11 = load ptr, ptr %0, align 8, !tbaa !13
  %wide.trip.count = zext nneg i32 %4 to i64
  br label %12

12:                                               ; preds = %.lr.ph, %23
  %indvars.iv = phi i64 [ 0, %.lr.ph ], [ %indvars.iv.next, %23 ]
  %13 = getelementptr inbounds nuw %struct.SpecifierOpt, ptr %11, i64 %indvars.iv
  %14 = load ptr, ptr %13, align 8, !tbaa !14
  %15 = load i8, ptr %14, align 1, !tbaa !19
  %16 = icmp eq i8 %15, %1
  br i1 %16, label %17, label %23

17:                                               ; preds = %12
  %18 = getelementptr inbounds nuw i8, ptr %14, i64 1
  %19 = load i8, ptr %18, align 1, !tbaa !19
  %.not17 = icmp eq i8 %19, 0
  br i1 %.not17, label %20, label %23

20:                                               ; preds = %17
  %21 = getelementptr inbounds nuw i8, ptr %13, i64 64
  %22 = load ptr, ptr %21, align 8, !tbaa !19
  br label %.loopexit

23:                                               ; preds = %17, %12
  %indvars.iv.next = add nuw nsw i64 %indvars.iv, 1
  %exitcond.not = icmp eq i64 %indvars.iv.next, %wide.trip.count
  br i1 %exitcond.not, label %.loopexit, label %12, !llvm.loop !20

.loopexit:                                        ; preds = %23, %2, %10, %20
  %spec.select = phi ptr [ %22, %20 ], [ null, %10 ], [ null, %2 ], [ null, %23 ]
  ret ptr %spec.select
}